target datalayout = "e-m:e-p270:32:32-p271:32:32-p272:64:64-i64:64-i128:128-f80:128-n8:16:32:64-S128"
target triple = "x86_64-pc-linux-gnu"

; Function Attrs: nounwind uwtable
define dso_local signext i8 @Curl_raw_toupper(i8 noundef signext %0) #0 {
  %2 = alloca i8, align 1
  store i8 %0, ptr %2, align 1, !tbaa !4
  %3 = load i8, ptr %2, align 1, !tbaa !4
  %4 = zext i8 %3 to i64
  %5 = getelementptr inbounds nuw [256 x i8], ptr @touppermap, i64 0, i64 %4
  %6 = load i8, ptr %5, align 1, !tbaa !4
  ret i8 %6
}

; Function Attrs: nounwind uwtable
define internal i32 @casecompare(ptr noundef %0, ptr noundef %1) #0 {
  %3 = alloca i32, align 4
  %4 = alloca ptr, align 8
  %5 = alloca ptr, align 8
  store ptr %0, ptr %4, align 8, !tbaa !7
  store ptr %1, ptr %5, align 8, !tbaa !7
  br label %6

6:                                                ; preds = %29, %2
  %7 = load ptr, ptr %4, align 8, !tbaa !7
  %8 = load i8, ptr %7, align 1, !tbaa !4
  %9 = sext i8 %8 to i32
  %10 = icmp ne i32 %9, 0
  br i1 %10, label %11, label %16

11:                                               ; preds = %6
  %12 = load ptr, ptr %5, align 8, !tbaa !7
  %13 = load i8, ptr %12, align 1, !tbaa !4
  %14 = sext i8 %13 to i32
  %15 = icmp ne i32 %14, 0
  br label %16

16:                                               ; preds = %11, %6
  %17 = phi i1 [ false, %6 ], [ %15, %11 ]
  br i1 %17, label %18, label %34

18:                                               ; preds = %16
  %19 = load ptr, ptr %4, align 8, !tbaa !7
  %20 = load i8, ptr %19, align 1, !tbaa !4
  %21 = call signext i8 @Curl_raw_toupper(i8 noundef signext %20)
  %22 = sext i8 %21 to i32
  %23 = load ptr, ptr %5, align 8, !tbaa !7
  %24 = load i8, ptr %23, align 1, !tbaa !4
  %25 = call signext i8 @Curl_raw_toupper(i8 noundef signext %24)
  %26 = sext i8 %25 to i32
  %27 = icmp ne i32 %22, %26
  br i1 %27, label %28, label %29

28:                                               ; preds = %18
  store i32 0, ptr %3, align 4
  br label %47

29:                                               ; preds = %18
  %30 = load ptr, ptr %4, align 8, !tbaa !7
  %31 = getelementptr inbounds nuw i8, ptr %30, i32 1
  store ptr %31, ptr %4, align 8, !tbaa !7
  %32 = load ptr, ptr %5, align 8, !tbaa !7
  %33 = getelementptr inbounds nuw i8, ptr %32, i32 1
  store ptr %33, ptr %5, align 8, !tbaa !7
  br label %6, !llvm.loop !10

34:                                               ; preds = %16
  %35 = load ptr, ptr %4, align 8, !tbaa !7
  %36 = load i8, ptr %35, align 1, !tbaa !4
  %37 = icmp ne i8 %36, 0
  %38 = xor i1 %37, true
  %39 = zext i1 %38 to i32
  %40 = load ptr, ptr %5, align 8, !tbaa !7
  %41 = load i8, ptr %40, align 1, !tbaa !4
  %42 = icmp ne i8 %41, 0
  %43 = xor i1 %42, true
  %44 = zext i1 %43 to i32
  %45 = icmp eq i32 %39, %44
  %46 = zext i1 %45 to i32
  store i32 %46, ptr %3, align 4
  br label %47

47:                                               ; preds = %34, %28
  %48 = load i32, ptr %3, align 4
  ret i32 %48
}

; Function Attrs: nounwind uwtable
define dso_local i32 @curl_strequal(ptr noundef %0, ptr noundef %1) #0 {
  %3 = alloca i32, align 4
  %4 = alloca ptr, align 8
  %5 = alloca ptr, align 8
  store ptr %0, ptr %4, align 8, !tbaa !7
  store ptr %1, ptr %5, align 8, !tbaa !7
  %6 = load ptr, ptr %4, align 8, !tbaa !7
  %7 = icmp ne ptr %6, null
  br i1 %7, label %8, label %15

8:                                                ; preds = %2
  %9 = load ptr, ptr %5, align 8, !tbaa !7
  %10 = icmp ne ptr %9, null
  br i1 %10, label %11, label %15

11:                                               ; preds = %8
  %12 = load ptr, ptr %4, align 8, !tbaa !7
  %13 = load ptr, ptr %5, align 8, !tbaa !7
  %14 = call i32 @casecompare(ptr noundef %12, ptr noundef %13)
  store i32 %14, ptr %3, align 4
  br label %24

15:                                               ; preds = %8, %2
  %16 = load ptr, ptr %4, align 8, !tbaa !7
  %17 = icmp eq ptr null, %16
  br i1 %17, label %18, label %21

18:                                               ; preds = %15
  %19 = load ptr, ptr %5, align 8, !tbaa !7
  %20 = icmp eq ptr null, %19
  br label %21

21:                                               ; preds = %18, %15
  %22 = phi i1 [ false, %15 ], [ %20, %18 ]
  %23 = zext i1 %22 to i32
  store i32 %23, ptr %3, align 4
  br label %24

24:                                               ; preds = %21, %11
  %25 = load i32, ptr %3, align 4
  ret i32 %25
}