; Function Attrs: nofree norecurse nosync nounwind memory(argmem: read) uwtable
define dso_local range(i32 0, 2) i32 @curl_strequal(ptr noundef readonly %0, ptr noundef readonly %1) local_unnamed_addr #1 {
  %3 = icmp ne ptr %0, null
  %4 = icmp ne ptr %1, null
  %or.cond = and i1 %3, %4
  br i1 %or.cond, label %5, label %23

5:                                                ; preds = %2
  %6 = load i8, ptr %0, align 1, !tbaa !4
  %.not16.i = icmp eq i8 %6, 0
  br i1 %.not16.i, label %.critedge.i, label %.lr.ph.i

.lr.ph.i:                                         ; preds = %5, %16
  %7 = phi i8 [ %19, %16 ], [ %6, %5 ]
  %.018.i = phi ptr [ %18, %16 ], [ %1, %5 ]
  %.0817.i = phi ptr [ %17, %16 ], [ %0, %5 ]
  %8 = load i8, ptr %.018.i, align 1, !tbaa !4
  %.not10.not.i.not.not = icmp ne i8 %8, 0
  br i1 %.not10.not.i.not.not, label %9, label %.critedge.i

9:                                                ; preds = %.lr.ph.i
  %10 = zext i8 %7 to i64
  %11 = getelementptr inbounds nuw [256 x i8], ptr @touppermap, i64 0, i64 %10
  %12 = load i8, ptr %11, align 1, !tbaa !4
  %13 = zext i8 %8 to i64
  %14 = getelementptr inbounds nuw [256 x i8], ptr @touppermap, i64 0, i64 %13
  %15 = load i8, ptr %14, align 1, !tbaa !4
  %.not13.i = icmp eq i8 %12, %15
  br i1 %.not13.i, label %16, label %casecompare.exit

16:                                               ; preds = %9
  %17 = getelementptr inbounds nuw i8, ptr %.0817.i, i64 1
  %18 = getelementptr inbounds nuw i8, ptr %.018.i, i64 1
  %19 = load i8, ptr %17, align 1, !tbaa !4
  %.not.i = icmp eq i8 %19, 0
  br i1 %.not.i, label %.critedge.i, label %.lr.ph.i, !llvm.loop !7

.critedge.i:                                      ; preds = %16, %.lr.ph.i, %5
  %.0.lcssa.i = phi ptr [ %1, %5 ], [ %.018.i, %.lr.ph.i ], [ %18, %16 ]
  %.not.lcssa.i = phi i1 [ true, %5 ], [ %.not10.not.i.not.not, %.lr.ph.i ], [ %.not10.not.i.not.not, %16 ]
  %20 = load i8, ptr %.0.lcssa.i, align 1, !tbaa !4
  %21 = icmp ne i8 %20, 0
  %22 = xor i1 %.not.lcssa.i, %21
  br label %casecompare.exit

23:                                               ; preds = %2
  %24 = icmp eq ptr %0, null
  %25 = icmp eq ptr %1, null
  %26 = and i1 %24, %25
  br label %casecompare.exit

casecompare.exit:                                 ; preds = %9, %.critedge.i, %23
  %.0.shrunk = phi i1 [ %26, %23 ], [ %22, %.critedge.i ], [ false, %9 ]
  %.0 = zext i1 %.0.shrunk to i32
  ret i32 %.0
}